; Function Attrs: nofree norecurse nosync nounwind memory(read, inaccessiblemem: none) uwtable
define float @stb_perlin_ridge_noise3(float noundef %0, float noundef %1, float noundef %2, float noundef %3, float noundef %4, float noundef %5, i32 noundef %6) local_unnamed_addr #4 {
  %8 = icmp sgt i32 %6, 0
  br i1 %8, label %.lr.ph, label %._crit_edge

.lr.ph:                                           ; preds = %7, %.lr.ph
  %.031 = phi i32 [ %21, %.lr.ph ], [ 0, %7 ]
  %.02330 = phi float [ %18, %.lr.ph ], [ 0.000000e+00, %7 ]
  %.02429 = phi float [ %20, %.lr.ph ], [ 5.000000e-01, %7 ]
  %.02528 = phi float [ %16, %.lr.ph ], [ 1.000000e+00, %7 ]
  %.02627 = phi float [ %19, %.lr.ph ], [ 1.000000e+00, %7 ]
  %9 = fmul float %0, %.02627
  %10 = fmul float %1, %.02627
  %11 = fmul float %2, %.02627
  %12 = trunc i32 %.031 to i8
  %13 = tail call float @stb_perlin_noise3_internal(float noundef %9, float noundef %10, float noundef %11, i32 noundef 0, i32 noundef 0, i32 noundef 0, i8 noundef zeroext %12)
  %14 = tail call float @llvm.fabs.f32(float %13)
  %15 = fsub float %5, %14
  %16 = fmul float %15, %15
  %17 = fmul float %.02429, %16
  %18 = tail call float @llvm.fmuladd.f32(float %17, float %.02528, float %.02330)
  %19 = fmul float %3, %.02627
  %20 = fmul float %4, %.02429
  %21 = add nuw nsw i32 %.031, 1
  %exitcond.not = icmp eq i32 %21, %6
  br i1 %exitcond.not, label %._crit_edge, label %.lr.ph, !llvm.loop !8

._crit_edge:                                      ; preds = %.lr.ph, %7
  %.023.lcssa = phi float [ 0.000000e+00, %7 ], [ %18, %.lr.ph ]
  ret float %.023.lcssa
}